; Function Attrs: nounwind uwtable
define hidden void @_ir_START(ptr nocapture noundef %0) local_unnamed_addr #0 {
  %2 = getelementptr inbounds i8, ptr %0, i64 8
  %3 = load i32, ptr %2, align 8
  %4 = getelementptr inbounds i8, ptr %0, i64 12
  %5 = load i32, ptr %4, align 4
  %.not.i.i.i = icmp slt i32 %3, %5
  %.pre.i.i = load ptr, ptr %0, align 8
  br i1 %.not.i.i.i, label %ir_emit0.exit, label %6

6:                                                ; preds = %1
  %7 = getelementptr inbounds i8, ptr %0, i64 20
  %8 = load i32, ptr %7, align 4
  %9 = icmp slt i32 %5, 4096
  %10 = shl nsw i32 %5, 1
  %11 = icmp ult i32 %5, 8192
  %12 = add nuw nsw i32 %5, 4096
  %spec.select.i.i.i.i = select i1 %11, i32 8192, i32 %12
  %.sink.i.i.i.i = select i1 %9, i32 %10, i32 %spec.select.i.i.i.i
  store i32 %.sink.i.i.i.i, ptr %4, align 4
  %13 = sext i32 %8 to i64
  %14 = sub nsw i64 0, %13
  %15 = getelementptr inbounds %struct._ir_insn, ptr %.pre.i.i, i64 %14
  %16 = add nsw i32 %8, %.sink.i.i.i.i
  %17 = sext i32 %16 to i64
  %18 = shl nsw i64 %17, 4
  %19 = tail call ptr @_erealloc(ptr noundef %15, i64 noundef %18) #24
  %20 = load i32, ptr %7, align 4
  %21 = sext i32 %20 to i64
  %22 = getelementptr inbounds %struct._ir_insn, ptr %19, i64 %21
  store ptr %22, ptr %0, align 8
  br label %ir_emit0.exit

ir_emit0.exit:                                    ; preds = %1, %6
  %23 = phi ptr [ %.pre.i.i, %1 ], [ %22, %6 ]
  %24 = add nsw i32 %3, 1
  store i32 %24, ptr %2, align 8
  %25 = sext i32 %3 to i64
  %26 = getelementptr inbounds %struct._ir_insn, ptr %23, i64 %25
  store <4 x i32> <i32 89, i32 0, i32 0, i32 0>, ptr %26, align 8
  %27 = getelementptr inbounds i8, ptr %0, i64 248
  store i32 %3, ptr %27, align 8
  ret void
}